target datalayout = "e-m:e-p270:32:32-p271:32:32-p272:64:64-i64:64-i128:128-f80:128-n8:16:32:64-S128"
target triple = "x86_64-pc-linux-gnu"

@hf_gryphon_ldf_get_frame_num_signals = internal global i32 0, align 4
@hf_gryphon_ldf_signal_name = internal global i32 0, align 4

; Function Attrs: null_pointer_is_valid sspstrong uwtable
define internal i32 @cmd_cnvt_get_values(ptr noundef %0, i32 noundef %1, ptr noundef %2) #0 {
  %4 = alloca ptr, align 8
  %5 = alloca i32, align 4
  %6 = alloca ptr, align 8
  %7 = alloca i8, align 1
  %8 = alloca i32, align 4
  %9 = alloca i32, align 4
  store ptr %0, ptr %4, align 8
  store i32 %1, ptr %5, align 4
  store ptr %2, ptr %6, align 8
  call void @llvm.lifetime.start.p0(i64 1, ptr %7) #7
  call void @llvm.lifetime.start.p0(i64 4, ptr %8) #7
  call void @llvm.lifetime.start.p0(i64 4, ptr %9) #7
  %10 = load ptr, ptr %4, align 8
  %11 = load i32, ptr %5, align 4
  %12 = call zeroext i8 @tvb_get_uint8(ptr noundef %10, i32 noundef %11)
  store i8 %12, ptr %7, align 1
  %13 = load ptr, ptr %6, align 8
  %14 = load i32, ptr @hf_gryphon_ldf_get_frame_num_signals, align 4
  %15 = load ptr, ptr %4, align 8
  %16 = load i32, ptr %5, align 4
  %17 = call ptr @proto_tree_add_item(ptr noundef %13, i32 noundef %14, ptr noundef %15, i32 noundef %16, i32 noundef 1, i32 noundef 0)
  %18 = load i32, ptr %5, align 4
  %19 = add i32 %18, 1
  store i32 %19, ptr %5, align 4
  store i32 0, ptr %9, align 4
  br label %20

20:                                               ; preds = %34, %3
  %21 = load i32, ptr %9, align 4
  %22 = load i8, ptr %7, align 1
  %23 = zext i8 %22 to i32
  %24 = icmp slt i32 %21, %23
  br i1 %24, label %25, label %37

25:                                               ; preds = %20
  %26 = load ptr, ptr %6, align 8
  %27 = load i32, ptr @hf_gryphon_ldf_signal_name, align 4
  %28 = load ptr, ptr %4, align 8
  %29 = load i32, ptr %5, align 4
  %30 = call ptr @proto_tree_add_item_ret_length(ptr noundef %26, i32 noundef %27, ptr noundef %28, i32 noundef %29, i32 noundef -1, i32 noundef 0, ptr noundef %8)
  %31 = load i32, ptr %8, align 4
  %32 = load i32, ptr %5, align 4
  %33 = add i32 %32, %31
  store i32 %33, ptr %5, align 4
  br label %34

34:                                               ; preds = %25
  %35 = load i32, ptr %9, align 4
  %36 = add i32 %35, 1
  store i32 %36, ptr %9, align 4
  br label %20, !llvm.loop !13

37:                                               ; preds = %20
  %38 = load i32, ptr %5, align 4
  call void @llvm.lifetime.end.p0(i64 4, ptr %9) #7
  call void @llvm.lifetime.end.p0(i64 4, ptr %8) #7
  call void @llvm.lifetime.end.p0(i64 1, ptr %7) #7
  ret i32 %38
}